target datalayout = "e-m:e-p270:32:32-p271:32:32-p272:64:64-i64:64-i128:128-f80:128-n8:16:32:64-S128"
target triple = "x86_64-pc-linux-gnu"

%struct.ArrayBuildState = type { ptr, ptr, ptr, i32, i32, i32, i16, i8, i8, i8 }
%struct.ArrayBuildStateArr = type { ptr, ptr, ptr, i32, i32, i32, i32, i32, [6 x i32], [6 x i32], i32, i32, i8 }
%struct.ArrayBuildStateAny = type { ptr, ptr }

@.str.35 = private unnamed_addr constant [17 x i8] c"accumArrayResult\00", align 1

; Function Attrs: nounwind uwtable
define dso_local ptr @initArrayResultWithSize(i32 noundef %0, ptr noundef %1, i1 noundef zeroext %2, i32 noundef %3) #0 {
  %5 = alloca i32, align 4
  %6 = alloca ptr, align 8
  %7 = alloca i8, align 1
  %8 = alloca i32, align 4
  %9 = alloca ptr, align 8
  %10 = alloca ptr, align 8
  %11 = alloca i32, align 4
  store i32 %0, ptr %5, align 4
  store ptr %1, ptr %6, align 8
  %12 = zext i1 %2 to i8
  store i8 %12, ptr %7, align 1
  store i32 %3, ptr %8, align 4
  call void @llvm.lifetime.start.p0(i64 8, ptr %9) #11
  call void @llvm.lifetime.start.p0(i64 8, ptr %10) #11
  %13 = load ptr, ptr %6, align 8
  store ptr %13, ptr %10, align 8
  %14 = load i8, ptr %7, align 1, !range !4, !noundef !5
  %15 = trunc i8 %14 to i1
  br i1 %15, label %16, label %22

16:                                               ; preds = %4
  br label %17

17:                                               ; preds = %16
  br label %18

18:                                               ; preds = %17
  br label %19

19:                                               ; preds = %18
  store i32 1, ptr %11, align 4
  %20 = load ptr, ptr %6, align 8
  %21 = call ptr @AllocSetContextCreateInternal(ptr noundef %20, ptr noundef @.str.35, i64 noundef 0, i64 noundef 8192, i64 noundef 8388608)
  store ptr %21, ptr %10, align 8
  br label %22

22:                                               ; preds = %19, %4
  %23 = load ptr, ptr %10, align 8
  %24 = call ptr @MemoryContextAlloc(ptr noundef %23, i64 noundef 48)
  store ptr %24, ptr %9, align 8
  %25 = load ptr, ptr %10, align 8
  %26 = load ptr, ptr %9, align 8
  %27 = getelementptr inbounds nuw %struct.ArrayBuildState, ptr %26, i32 0, i32 0
  store ptr %25, ptr %27, align 8
  %28 = load i8, ptr %7, align 1, !range !4, !noundef !5
  %29 = trunc i8 %28 to i1
  %30 = load ptr, ptr %9, align 8
  %31 = getelementptr inbounds nuw %struct.ArrayBuildState, ptr %30, i32 0, i32 9
  %32 = zext i1 %29 to i8
  store i8 %32, ptr %31, align 8
  %33 = load i32, ptr %8, align 4
  %34 = load ptr, ptr %9, align 8
  %35 = getelementptr inbounds nuw %struct.ArrayBuildState, ptr %34, i32 0, i32 3
  store i32 %33, ptr %35, align 8
  %36 = load ptr, ptr %10, align 8
  %37 = load ptr, ptr %9, align 8
  %38 = getelementptr inbounds nuw %struct.ArrayBuildState, ptr %37, i32 0, i32 3
  %39 = load i32, ptr %38, align 8
  %40 = sext i32 %39 to i64
  %41 = mul i64 %40, 8
  %42 = call ptr @MemoryContextAlloc(ptr noundef %36, i64 noundef %41)
  %43 = load ptr, ptr %9, align 8
  %44 = getelementptr inbounds nuw %struct.ArrayBuildState, ptr %43, i32 0, i32 1
  store ptr %42, ptr %44, align 8
  %45 = load ptr, ptr %10, align 8
  %46 = load ptr, ptr %9, align 8
  %47 = getelementptr inbounds nuw %struct.ArrayBuildState, ptr %46, i32 0, i32 3
  %48 = load i32, ptr %47, align 8
  %49 = sext i32 %48 to i64
  %50 = mul i64 %49, 1
  %51 = call ptr @MemoryContextAlloc(ptr noundef %45, i64 noundef %50)
  %52 = load ptr, ptr %9, align 8
  %53 = getelementptr inbounds nuw %struct.ArrayBuildState, ptr %52, i32 0, i32 2
  store ptr %51, ptr %53, align 8
  %54 = load ptr, ptr %9, align 8
  %55 = getelementptr inbounds nuw %struct.ArrayBuildState, ptr %54, i32 0, i32 4
  store i32 0, ptr %55, align 4
  %56 = load i32, ptr %5, align 4
  %57 = load ptr, ptr %9, align 8
  %58 = getelementptr inbounds nuw %struct.ArrayBuildState, ptr %57, i32 0, i32 5
  store i32 %56, ptr %58, align 8
  %59 = load i32, ptr %5, align 4
  %60 = load ptr, ptr %9, align 8
  %61 = getelementptr inbounds nuw %struct.ArrayBuildState, ptr %60, i32 0, i32 6
  %62 = load ptr, ptr %9, align 8
  %63 = getelementptr inbounds nuw %struct.ArrayBuildState, ptr %62, i32 0, i32 7
  %64 = load ptr, ptr %9, align 8
  %65 = getelementptr inbounds nuw %struct.ArrayBuildState, ptr %64, i32 0, i32 8
  call void @get_typlenbyvalalign(i32 noundef %59, ptr noundef %61, ptr noundef %63, ptr noundef %65)
  %66 = load ptr, ptr %9, align 8
  call void @llvm.lifetime.end.p0(i64 8, ptr %10) #11
  call void @llvm.lifetime.end.p0(i64 8, ptr %9) #11
  ret ptr %66
}

; Function Attrs: nounwind uwtable
define dso_local ptr @initArrayResult(i32 noundef %0, ptr noundef %1, i1 noundef zeroext %2) #0 {
  %4 = alloca i32, align 4
  %5 = alloca ptr, align 8
  %6 = alloca i8, align 1
  store i32 %0, ptr %4, align 4
  store ptr %1, ptr %5, align 8
  %7 = zext i1 %2 to i8
  store i8 %7, ptr %6, align 1
  %8 = load i32, ptr %4, align 4
  %9 = load ptr, ptr %5, align 8
  %10 = load i8, ptr %6, align 1, !range !4, !noundef !5
  %11 = trunc i8 %10 to i1
  %12 = load i8, ptr %6, align 1, !range !4, !noundef !5
  %13 = trunc i8 %12 to i1
  %14 = select i1 %13, i32 64, i32 8
  %15 = call ptr @initArrayResultWithSize(i32 noundef %8, ptr noundef %9, i1 noundef zeroext %11, i32 noundef %14)
  ret ptr %15
}

; Function Attrs: nounwind uwtable
define dso_local ptr @initArrayResultAny(i32 noundef %0, ptr noundef %1, i1 noundef zeroext %2) #0 {
  %4 = alloca i32, align 4
  %5 = alloca ptr, align 8
  %6 = alloca i8, align 1
  %7 = alloca ptr, align 8
  %8 = alloca i32, align 4
  %9 = alloca ptr, align 8
  %10 = alloca ptr, align 8
  store i32 %0, ptr %4, align 4
  store ptr %1, ptr %5, align 8
  %11 = zext i1 %2 to i8
  store i8 %11, ptr %6, align 1
  call void @llvm.lifetime.start.p0(i64 8, ptr %7) #11
  call void @llvm.lifetime.start.p0(i64 4, ptr %8) #11
  %12 = load i32, ptr %4, align 4
  %13 = call i32 @get_element_type(i32 noundef %12)
  store i32 %13, ptr %8, align 4
  %14 = load i32, ptr %8, align 4
  %15 = icmp ne i32 %14, 0
  br i1 %15, label %16, label %31

16:                                               ; preds = %3
  call void @llvm.lifetime.start.p0(i64 8, ptr %9) #11
  %17 = load i32, ptr %4, align 4
  %18 = load ptr, ptr %5, align 8
  %19 = load i8, ptr %6, align 1, !range !4, !noundef !5
  %20 = trunc i8 %19 to i1
  %21 = call ptr @initArrayResultArr(i32 noundef %17, i32 noundef 0, ptr noundef %18, i1 noundef zeroext %20)
  store ptr %21, ptr %9, align 8
  %22 = load ptr, ptr %9, align 8
  %23 = getelementptr inbounds nuw %struct.ArrayBuildStateArr, ptr %22, i32 0, i32 0
  %24 = load ptr, ptr %23, align 8
  %25 = call ptr @MemoryContextAlloc(ptr noundef %24, i64 noundef 16)
  store ptr %25, ptr %7, align 8
  %26 = load ptr, ptr %7, align 8
  %27 = getelementptr inbounds nuw %struct.ArrayBuildStateAny, ptr %26, i32 0, i32 0
  store ptr null, ptr %27, align 8
  %28 = load ptr, ptr %9, align 8
  %29 = load ptr, ptr %7, align 8
  %30 = getelementptr inbounds nuw %struct.ArrayBuildStateAny, ptr %29, i32 0, i32 1
  store ptr %28, ptr %30, align 8
  call void @llvm.lifetime.end.p0(i64 8, ptr %9) #11
  br label %46

31:                                               ; preds = %3
  call void @llvm.lifetime.start.p0(i64 8, ptr %10) #11
  %32 = load i32, ptr %4, align 4
  %33 = load ptr, ptr %5, align 8
  %34 = load i8, ptr %6, align 1, !range !4, !noundef !5
  %35 = trunc i8 %34 to i1
  %36 = call ptr @initArrayResult(i32 noundef %32, ptr noundef %33, i1 noundef zeroext %35)
  store ptr %36, ptr %10, align 8
  %37 = load ptr, ptr %10, align 8
  %38 = getelementptr inbounds nuw %struct.ArrayBuildState, ptr %37, i32 0, i32 0
  %39 = load ptr, ptr %38, align 8
  %40 = call ptr @MemoryContextAlloc(ptr noundef %39, i64 noundef 16)
  store ptr %40, ptr %7, align 8
  %41 = load ptr, ptr %10, align 8
  %42 = load ptr, ptr %7, align 8
  %43 = getelementptr inbounds nuw %struct.ArrayBuildStateAny, ptr %42, i32 0, i32 0
  store ptr %41, ptr %43, align 8
  %44 = load ptr, ptr %7, align 8
  %45 = getelementptr inbounds nuw %struct.ArrayBuildStateAny, ptr %44, i32 0, i32 1
  store ptr null, ptr %45, align 8
  call void @llvm.lifetime.end.p0(i64 8, ptr %10) #11
  br label %46

46:                                               ; preds = %31, %16
  %47 = load ptr, ptr %7, align 8
  call void @llvm.lifetime.end.p0(i64 4, ptr %8) #11
  call void @llvm.lifetime.end.p0(i64 8, ptr %7) #11
  ret ptr %47
}