; Function Attrs: nounwind uwtable
define dso_local noundef ptr @initArrayResultAny(i32 noundef %0, ptr noundef %1, i1 noundef zeroext %2) local_unnamed_addr #0 {
  %4 = tail call i32 @get_element_type(i32 noundef %0) #18
  %.not = icmp eq i32 %4, 0
  br i1 %.not, label %7, label %5

5:                                                ; preds = %3
  %6 = tail call ptr @initArrayResultArr(i32 noundef %0, i32 noundef 0, ptr noundef %1, i1 noundef zeroext %2)
  br label %28

7:                                                ; preds = %3
  br i1 %2, label %8, label %initArrayResult.exit

8:                                                ; preds = %7
  %9 = tail call ptr @AllocSetContextCreateInternal(ptr noundef %1, ptr noundef nonnull @.str.35, i64 noundef 0, i64 noundef 8192, i64 noundef 8388608) #18
  br label %initArrayResult.exit

initArrayResult.exit:                             ; preds = %7, %8
  %10 = phi i32 [ 8, %7 ], [ 64, %8 ]
  %.0.i.i = phi ptr [ %1, %7 ], [ %9, %8 ]
  %11 = zext i1 %2 to i8
  %12 = tail call ptr @MemoryContextAlloc(ptr noundef %.0.i.i, i64 noundef 48) #18
  store ptr %.0.i.i, ptr %12, align 8
  %13 = getelementptr inbounds nuw i8, ptr %12, i64 40
  store i8 %11, ptr %13, align 8
  %14 = getelementptr inbounds nuw i8, ptr %12, i64 24
  store i32 %10, ptr %14, align 8
  %15 = shl nuw nsw i32 %10, 3
  %16 = zext nneg i32 %15 to i64
  %17 = tail call ptr @MemoryContextAlloc(ptr noundef %.0.i.i, i64 noundef %16) #18
  %18 = getelementptr inbounds nuw i8, ptr %12, i64 8
  store ptr %17, ptr %18, align 8
  %19 = load i32, ptr %14, align 8
  %20 = sext i32 %19 to i64
  %21 = tail call ptr @MemoryContextAlloc(ptr noundef %.0.i.i, i64 noundef %20) #18
  %22 = getelementptr inbounds nuw i8, ptr %12, i64 16
  store ptr %21, ptr %22, align 8
  %23 = getelementptr inbounds nuw i8, ptr %12, i64 28
  store i32 0, ptr %23, align 4
  %24 = getelementptr inbounds nuw i8, ptr %12, i64 32
  store i32 %0, ptr %24, align 8
  %25 = getelementptr inbounds nuw i8, ptr %12, i64 36
  %26 = getelementptr inbounds nuw i8, ptr %12, i64 38
  %27 = getelementptr inbounds nuw i8, ptr %12, i64 39
  tail call void @get_typlenbyvalalign(i32 noundef %0, ptr noundef nonnull %25, ptr noundef nonnull %26, ptr noundef nonnull %27) #18
  br label %28

28:                                               ; preds = %initArrayResult.exit, %5
  %.sink21 = phi ptr [ %12, %initArrayResult.exit ], [ %6, %5 ]
  %.sink18 = phi ptr [ %12, %initArrayResult.exit ], [ null, %5 ]
  %.sink = phi ptr [ null, %initArrayResult.exit ], [ %6, %5 ]
  %29 = load ptr, ptr %.sink21, align 8
  %30 = tail call ptr @MemoryContextAlloc(ptr noundef %29, i64 noundef 16) #18
  store ptr %.sink18, ptr %30, align 8
  %31 = getelementptr inbounds nuw i8, ptr %30, i64 8
  store ptr %.sink, ptr %31, align 8
  ret ptr %30
}